target datalayout = "e-m:e-p270:32:32-p271:32:32-p272:64:64-i64:64-i128:128-f80:128-n8:16:32:64-S128"
target triple = "x86_64-unknown-linux-gnu"

%"class.v8::IndirectHandleBase" = type { ptr }
%"class.node::StreamPipe" = type { %"class.node::AsyncWrap", i32, i8, i8, i8, i8, i8, i8, i64, %"class.node::StreamPipe::ReadableListener", %"class.node::StreamPipe::WritableListener" }
%"class.node::AsyncWrap" = type { %"class.node::BaseObject", i32, i8, double, double }
%"class.node::BaseObject" = type { %"class.node::MemoryRetainer", %"class.v8::Global", ptr, ptr }
%"class.node::MemoryRetainer" = type { ptr }
%"class.v8::Global" = type { %"class.v8::PersistentBase" }
%"class.v8::PersistentBase" = type { %"class.v8::IndirectHandleBase" }
%"class.node::StreamPipe::ReadableListener" = type { %"class.node::StreamListener" }
%"class.node::StreamListener" = type { ptr, ptr, ptr }
%"class.node::StreamPipe::WritableListener" = type { %"class.node::StreamListener" }
%"class.node::ContainerOfHelper.264" = type { ptr }

; Function Attrs: mustprogress nounwind uwtable
define linkonce_odr dso_local noundef i64 @_ZN4node8OffsetOfINS_10StreamPipe16WritableListenerES1_EEmMT0_T_(i64 %field) #4 comdat {
entry:
  %field.addr = alloca i64, align 8
  store i64 %field, ptr %field.addr, align 8
  %0 = load i64, ptr %field.addr, align 8
  %memptr.offset = getelementptr inbounds i8, ptr null, i64 %0
  %1 = ptrtoint ptr %memptr.offset to i64
  ret i64 %1
}

; Function Attrs: mustprogress nounwind uwtable
define linkonce_odr dso_local void @_ZN4node17ContainerOfHelperINS_10StreamPipe16WritableListenerES1_EC2EMS1_S2_PS2_(ptr noundef nonnull align 8 dereferenceable(8) %this, i64 %field, ptr noundef %pointer) unnamed_addr #4 comdat align 2 {
entry:
  %this.addr = alloca ptr, align 8
  %field.addr = alloca i64, align 8
  %pointer.addr = alloca ptr, align 8
  store ptr %this, ptr %this.addr, align 8
  store i64 %field, ptr %field.addr, align 8
  store ptr %pointer, ptr %pointer.addr, align 8
  %this1 = load ptr, ptr %this.addr, align 8
  %pointer_ = getelementptr inbounds %"class.node::ContainerOfHelper.264", ptr %this1, i32 0, i32 0
  %0 = load ptr, ptr %pointer.addr, align 8
  %1 = ptrtoint ptr %0 to i64
  %2 = load i64, ptr %field.addr, align 8
  %call = call noundef i64 @_ZN4node8OffsetOfINS_10StreamPipe16WritableListenerES1_EEmMT0_T_(i64 %2)
  %sub = sub i64 %1, %call
  %3 = inttoptr i64 %sub to ptr
  store ptr %3, ptr %pointer_, align 8
  ret void
}

; Function Attrs: mustprogress nounwind uwtable
define linkonce_odr dso_local noundef ptr @_ZNK4node17ContainerOfHelperINS_10StreamPipe16WritableListenerES1_EcvPT_IS1_EEv(ptr noundef nonnull align 8 dereferenceable(8) %this) #4 comdat align 2 {
entry:
  %this.addr = alloca ptr, align 8
  store ptr %this, ptr %this.addr, align 8
  %this1 = load ptr, ptr %this.addr, align 8
  %pointer_ = getelementptr inbounds %"class.node::ContainerOfHelper.264", ptr %this1, i32 0, i32 0
  %0 = load ptr, ptr %pointer_, align 8
  ret ptr %0
}

; Function Attrs: mustprogress nounwind uwtable
define linkonce_odr dso_local ptr @_ZN4node11ContainerOfINS_10StreamPipe16WritableListenerES1_EENS_17ContainerOfHelperIT_T0_EEMS5_S4_PS4_(i64 %field, ptr noundef %pointer) #4 comdat {
entry:
  %retval = alloca %"class.node::ContainerOfHelper.264", align 8
  %field.addr = alloca i64, align 8
  %pointer.addr = alloca ptr, align 8
  store i64 %field, ptr %field.addr, align 8
  store ptr %pointer, ptr %pointer.addr, align 8
  %0 = load i64, ptr %field.addr, align 8
  %1 = load ptr, ptr %pointer.addr, align 8
  call void @_ZN4node17ContainerOfHelperINS_10StreamPipe16WritableListenerES1_EC2EMS1_S2_PS2_(ptr noundef nonnull align 8 dereferenceable(8) %retval, i64 %0, ptr noundef %1)
  %coerce.dive = getelementptr inbounds %"class.node::ContainerOfHelper.264", ptr %retval, i32 0, i32 0
  %2 = load ptr, ptr %coerce.dive, align 8
  ret ptr %2
}

; Function Attrs: mustprogress nounwind uwtable
define dso_local void @_ZN4node10StreamPipe16WritableListener15OnStreamDestroyEv(ptr noundef nonnull align 8 dereferenceable(24) %this) unnamed_addr #4 align 2 {
entry:
  %this.addr = alloca ptr, align 8
  %pipe = alloca ptr, align 8
  %ref.tmp = alloca %"class.node::ContainerOfHelper.264", align 8
  store ptr %this, ptr %this.addr, align 8
  %this1 = load ptr, ptr %this.addr, align 8
  %call = call ptr @_ZN4node11ContainerOfINS_10StreamPipe16WritableListenerES1_EENS_17ContainerOfHelperIT_T0_EEMS5_S4_PS4_(i64 104, ptr noundef %this1)
  %coerce.dive = getelementptr inbounds %"class.node::ContainerOfHelper.264", ptr %ref.tmp, i32 0, i32 0
  store ptr %call, ptr %coerce.dive, align 8
  %call2 = call noundef ptr @_ZNK4node17ContainerOfHelperINS_10StreamPipe16WritableListenerES1_EcvPT_IS1_EEv(ptr noundef nonnull align 8 dereferenceable(8) %ref.tmp)
  store ptr %call2, ptr %pipe, align 8
  %0 = load ptr, ptr %pipe, align 8
  %sink_destroyed_ = getelementptr inbounds %"class.node::StreamPipe", ptr %0, i32 0, i32 5
  store i8 1, ptr %sink_destroyed_, align 1
  %1 = load ptr, ptr %pipe, align 8
  %is_eof_ = getelementptr inbounds %"class.node::StreamPipe", ptr %1, i32 0, i32 3
  store i8 1, ptr %is_eof_, align 1
  %2 = load ptr, ptr %pipe, align 8
  %pending_writes_ = getelementptr inbounds %"class.node::StreamPipe", ptr %2, i32 0, i32 1
  store i32 0, ptr %pending_writes_, align 8
  %3 = load ptr, ptr %pipe, align 8
  call void @_ZN4node10StreamPipe6UnpipeEb(ptr noundef nonnull align 8 dereferenceable(128) %3, i1 noundef zeroext false)
  ret void
}