; Function Attrs: mustprogress nounwind uwtable
define dso_local void @_ZN4node10StreamPipe16WritableListener15OnStreamDestroyEv(ptr noundef nonnull align 8 dereferenceable(24) %this) unnamed_addr #3 align 2 {
entry:
  %0 = ptrtoint ptr %this to i64
  %sub.i.i = add i64 %0, -104
  %1 = inttoptr i64 %sub.i.i to ptr
  %sink_destroyed_ = getelementptr inbounds i8, ptr %1, i64 63
  store i8 1, ptr %sink_destroyed_, align 1
  %is_eof_ = getelementptr inbounds i8, ptr %1, i64 61
  store i8 1, ptr %is_eof_, align 1
  %pending_writes_ = getelementptr inbounds i8, ptr %1, i64 56
  store i32 0, ptr %pending_writes_, align 8
  tail call void @_ZN4node10StreamPipe6UnpipeEb(ptr noundef nonnull align 8 dereferenceable(128) %1, i1 noundef zeroext false)
  ret void
}